target datalayout = "e-m:e-p270:32:32-p271:32:32-p272:64:64-i64:64-i128:128-f80:128-n8:16:32:64-S128"
target triple = "x86_64-pc-linux-gnu"

@.str.1 = private unnamed_addr constant [14 x i8] c"opclasscmds.c\00", align 1
@.str.14 = private unnamed_addr constant [74 x i8] c"operator family \22%s\22 for access method \22%s\22 already exists in schema \22%s\22\00", align 1
@__func__.IsThereOpFamilyInNamespace = private unnamed_addr constant [27 x i8] c"IsThereOpFamilyInNamespace\00", align 1

; Function Attrs: inlinehint nounwind uwtable
define internal i64 @PointerGetDatum(ptr noundef %0) #2 {
  %2 = alloca ptr, align 8
  store ptr %0, ptr %2, align 8
  %3 = load ptr, ptr %2, align 8
  %4 = ptrtoint ptr %3 to i64
  ret i64 %4
}

; Function Attrs: inlinehint nounwind uwtable
define internal i64 @CStringGetDatum(ptr noundef %0) #2 {
  %2 = alloca ptr, align 8
  store ptr %0, ptr %2, align 8
  %3 = load ptr, ptr %2, align 8
  %4 = call i64 @PointerGetDatum(ptr noundef %3)
  ret i64 %4
}

; Function Attrs: inlinehint nounwind uwtable
define internal i64 @ObjectIdGetDatum(i32 noundef %0) #2 {
  %2 = alloca i32, align 4
  store i32 %0, ptr %2, align 4
  %3 = load i32, ptr %2, align 4
  %4 = zext i32 %3 to i64
  ret i64 %4
}

; Function Attrs: nounwind uwtable
define dso_local void @IsThereOpFamilyInNamespace(ptr noundef %0, i32 noundef %1, i32 noundef %2) #0 {
  %4 = alloca ptr, align 8
  %5 = alloca i32, align 4
  %6 = alloca i32, align 4
  store ptr %0, ptr %4, align 8
  store i32 %1, ptr %5, align 4
  store i32 %2, ptr %6, align 4
  %7 = load i32, ptr %5, align 4
  %8 = call i64 @ObjectIdGetDatum(i32 noundef %7)
  %9 = load ptr, ptr %4, align 8
  %10 = call i64 @CStringGetDatum(ptr noundef %9)
  %11 = load i32, ptr %6, align 4
  %12 = call i64 @ObjectIdGetDatum(i32 noundef %11)
  %13 = call zeroext i1 @SearchSysCacheExists(i32 noundef 41, i64 noundef %8, i64 noundef %10, i64 noundef %12, i64 noundef 0)
  br i1 %13, label %14, label %30

14:                                               ; preds = %3
  br label %15

15:                                               ; preds = %14
  br i1 true, label %16, label %18

16:                                               ; preds = %15
  %17 = call zeroext i1 @errstart_cold(i32 noundef 21, ptr noundef null) #8
  br i1 %17, label %20, label %28

18:                                               ; preds = %15
  %19 = call zeroext i1 @errstart(i32 noundef 21, ptr noundef null)
  br i1 %19, label %20, label %28

20:                                               ; preds = %18, %16
  %21 = call i32 @errcode(i32 noundef 290948)
  %22 = load ptr, ptr %4, align 8
  %23 = load i32, ptr %5, align 4
  %24 = call ptr @get_am_name(i32 noundef %23)
  %25 = load i32, ptr %6, align 4
  %26 = call ptr @get_namespace_name(i32 noundef %25)
  %27 = call i32 (ptr, ...) @errmsg(ptr noundef @.str.14, ptr noundef %22, ptr noundef %24, ptr noundef %26)
  call void @errfinish(ptr noundef @.str.1, i32 noundef 1841, ptr noundef @__func__.IsThereOpFamilyInNamespace)
  br label %28

28:                                               ; preds = %20, %18, %16
  unreachable

29:                                               ; No predecessors!
  br label %30

30:                                               ; preds = %29, %3
  ret void
}